target datalayout = "e-m:e-p270:32:32-p271:32:32-p272:64:64-i64:64-i128:128-f80:128-n8:16:32:64-S128"
target triple = "x86_64-pc-linux-gnu"

%union.pthread_mutex_t = type { %struct.__pthread_mutex_s }
%struct.__pthread_mutex_s = type { i32, i32, i32, i32, i32, i16, i16, %struct.__pthread_internal_list }
%struct.__pthread_internal_list = type { ptr, ptr }

@.str = private unnamed_addr constant [29 x i8] c"%s: pthread_mutex_lock(): %m\00", align 1
@.str.2 = private unnamed_addr constant [10 x i8] c"forward.c\00", align 1
@.str.3 = private unnamed_addr constant [31 x i8] c"%s: pthread_mutex_unlock(): %m\00", align 1
@alias_addrs_mutex = internal global %union.pthread_mutex_t zeroinitializer, align 8
@__func__.fwd_set_alias_addrs = private unnamed_addr constant [20 x i8] c"fwd_set_alias_addrs\00", align 1
@last_alias_addrs = internal global ptr null, align 8

; Function Attrs: nounwind uwtable
define dso_local void @fwd_set_alias_addrs(ptr noundef %0) #0 {
  %2 = alloca ptr, align 8
  %3 = alloca i32, align 4
  %4 = alloca i32, align 4
  store ptr %0, ptr %2, align 8
  %5 = load ptr, ptr %2, align 8
  %6 = icmp ne ptr %5, null
  br i1 %6, label %8, label %7

7:                                                ; preds = %1
  br label %33

8:                                                ; preds = %1
  br label %9

9:                                                ; preds = %8
  call void @llvm.lifetime.start.p0(i64 4, ptr %3) #8
  %10 = call i32 @pthread_mutex_lock(ptr noundef @alias_addrs_mutex) #8
  store i32 %10, ptr %3, align 4
  %11 = load i32, ptr %3, align 4
  %12 = icmp ne i32 %11, 0
  br i1 %12, label %13, label %16

13:                                               ; preds = %9
  %14 = load i32, ptr %3, align 4
  %15 = call ptr @__errno_location() #9
  store i32 %14, ptr %15, align 4
  call void (ptr, ...) @fatal_abort(ptr noundef @.str, ptr noundef @__func__.fwd_set_alias_addrs) #10
  unreachable

16:                                               ; preds = %9
  call void @llvm.lifetime.end.p0(i64 4, ptr %3) #8
  br label %17

17:                                               ; preds = %16
  %18 = load ptr, ptr @last_alias_addrs, align 8
  %19 = icmp ne ptr %18, null
  br i1 %19, label %22, label %20

20:                                               ; preds = %17
  %21 = call ptr @slurm_xcalloc(i64 noundef 1, i64 noundef 40, i1 noundef zeroext true, i1 noundef zeroext false, ptr noundef @.str.2, i32 noundef 931, ptr noundef @__func__.fwd_set_alias_addrs)
  store ptr %21, ptr @last_alias_addrs, align 8
  br label %22

22:                                               ; preds = %20, %17
  %23 = load ptr, ptr @last_alias_addrs, align 8
  %24 = load ptr, ptr %2, align 8
  call void @slurm_copy_node_alias_addrs_members(ptr noundef %23, ptr noundef %24)
  br label %25

25:                                               ; preds = %22
  call void @llvm.lifetime.start.p0(i64 4, ptr %4) #8
  %26 = call i32 @pthread_mutex_unlock(ptr noundef @alias_addrs_mutex) #8
  store i32 %26, ptr %4, align 4
  %27 = load i32, ptr %4, align 4
  %28 = icmp ne i32 %27, 0
  br i1 %28, label %29, label %32

29:                                               ; preds = %25
  %30 = load i32, ptr %4, align 4
  %31 = call ptr @__errno_location() #9
  store i32 %30, ptr %31, align 4
  call void (ptr, ...) @fatal_abort(ptr noundef @.str.3, ptr noundef @__func__.fwd_set_alias_addrs) #10
  unreachable

32:                                               ; preds = %25
  call void @llvm.lifetime.end.p0(i64 4, ptr %4) #8
  br label %33

33:                                               ; preds = %7, %32
  ret void
}