; Function Attrs: nounwind uwtable
define dso_local void @fwd_set_alias_addrs(ptr noundef %0) local_unnamed_addr #0 {
  %.not = icmp eq ptr %0, null
  br i1 %.not, label %15, label %2

2:                                                ; preds = %1
  %3 = tail call i32 @pthread_mutex_lock(ptr noundef nonnull @alias_addrs_mutex) #10
  %.not7 = icmp eq i32 %3, 0
  br i1 %.not7, label %6, label %4

4:                                                ; preds = %2
  %5 = tail call ptr @__errno_location() #11
  store i32 %3, ptr %5, align 4
  tail call void (ptr, ...) @fatal_abort(ptr noundef nonnull @.str, ptr noundef nonnull @__func__.fwd_set_alias_addrs) #12
  unreachable

6:                                                ; preds = %2
  %7 = load ptr, ptr @last_alias_addrs, align 8
  %.not8 = icmp eq ptr %7, null
  br i1 %.not8, label %8, label %10

8:                                                ; preds = %6
  %9 = tail call ptr @slurm_xcalloc(i64 noundef 1, i64 noundef 40, i1 noundef zeroext true, i1 noundef zeroext false, ptr noundef nonnull @.str.2, i32 noundef 931, ptr noundef nonnull @__func__.fwd_set_alias_addrs) #10
  store ptr %9, ptr @last_alias_addrs, align 8
  br label %10

10:                                               ; preds = %8, %6
  %11 = phi ptr [ %9, %8 ], [ %7, %6 ]
  tail call void @slurm_copy_node_alias_addrs_members(ptr noundef %11, ptr noundef nonnull %0) #10
  %12 = tail call i32 @pthread_mutex_unlock(ptr noundef nonnull @alias_addrs_mutex) #10
  %.not9 = icmp eq i32 %12, 0
  br i1 %.not9, label %15, label %13

13:                                               ; preds = %10
  %14 = tail call ptr @__errno_location() #11
  store i32 %12, ptr %14, align 4
  tail call void (ptr, ...) @fatal_abort(ptr noundef nonnull @.str.3, ptr noundef nonnull @__func__.fwd_set_alias_addrs) #12
  unreachable

15:                                               ; preds = %10, %1
  ret void
}